; Function Attrs: mustprogress ssp uwtable
define noundef range(i32 1, 18) i32 @_ZN6open3d1t8geometry8vtkutils14DtypeToVtkTypeERKNS_4core5DtypeE(ptr noundef nonnull align 8 dereferenceable(32) %0) local_unnamed_addr #6 personality ptr @__gxx_personality_v0 {
  %2 = alloca %"class.std::__cxx11::basic_string", align 8
  %3 = tail call noundef zeroext i1 @_ZNK6open3d4core5DtypeeqERKS1_(ptr noundef nonnull align 8 dereferenceable(32) %0, ptr noundef nonnull align 8 dereferenceable(32) @_ZN6open3d4core7Float32E)
  br i1 %3, label %36, label %4

4:                                                ; preds = %1
  %5 = tail call noundef zeroext i1 @_ZNK6open3d4core5DtypeeqERKS1_(ptr noundef nonnull align 8 dereferenceable(32) %0, ptr noundef nonnull align 8 dereferenceable(32) @_ZN6open3d4core7Float64E)
  br i1 %5, label %36, label %6

6:                                                ; preds = %4
  %7 = tail call noundef zeroext i1 @_ZNK6open3d4core5DtypeeqERKS1_(ptr noundef nonnull align 8 dereferenceable(32) %0, ptr noundef nonnull align 8 dereferenceable(32) @_ZN6open3d4core4Int8E)
  br i1 %7, label %36, label %8

8:                                                ; preds = %6
  %9 = tail call noundef zeroext i1 @_ZNK6open3d4core5DtypeeqERKS1_(ptr noundef nonnull align 8 dereferenceable(32) %0, ptr noundef nonnull align 8 dereferenceable(32) @_ZN6open3d4core5Int16E)
  br i1 %9, label %36, label %10

10:                                               ; preds = %8
  %11 = tail call noundef zeroext i1 @_ZNK6open3d4core5DtypeeqERKS1_(ptr noundef nonnull align 8 dereferenceable(32) %0, ptr noundef nonnull align 8 dereferenceable(32) @_ZN6open3d4core5Int32E)
  br i1 %11, label %36, label %12

12:                                               ; preds = %10
  %13 = tail call noundef zeroext i1 @_ZNK6open3d4core5DtypeeqERKS1_(ptr noundef nonnull align 8 dereferenceable(32) %0, ptr noundef nonnull align 8 dereferenceable(32) @_ZN6open3d4core5Int64E)
  br i1 %13, label %36, label %14

14:                                               ; preds = %12
  %15 = tail call noundef zeroext i1 @_ZNK6open3d4core5DtypeeqERKS1_(ptr noundef nonnull align 8 dereferenceable(32) %0, ptr noundef nonnull align 8 dereferenceable(32) @_ZN6open3d4core5UInt8E)
  br i1 %15, label %36, label %16

16:                                               ; preds = %14
  %17 = tail call noundef zeroext i1 @_ZNK6open3d4core5DtypeeqERKS1_(ptr noundef nonnull align 8 dereferenceable(32) %0, ptr noundef nonnull align 8 dereferenceable(32) @_ZN6open3d4core6UInt16E)
  br i1 %17, label %36, label %18

18:                                               ; preds = %16
  %19 = tail call noundef zeroext i1 @_ZNK6open3d4core5DtypeeqERKS1_(ptr noundef nonnull align 8 dereferenceable(32) %0, ptr noundef nonnull align 8 dereferenceable(32) @_ZN6open3d4core6UInt32E)
  br i1 %19, label %36, label %20

20:                                               ; preds = %18
  %21 = tail call noundef zeroext i1 @_ZNK6open3d4core5DtypeeqERKS1_(ptr noundef nonnull align 8 dereferenceable(32) %0, ptr noundef nonnull align 8 dereferenceable(32) @_ZN6open3d4core6UInt64E)
  br i1 %21, label %36, label %22

22:                                               ; preds = %20
  %23 = tail call noundef zeroext i1 @_ZNK6open3d4core5DtypeeqERKS1_(ptr noundef nonnull align 8 dereferenceable(32) %0, ptr noundef nonnull align 8 dereferenceable(32) @_ZN6open3d4core4BoolE)
  br i1 %23, label %36, label %24

24:                                               ; preds = %22
  call void @llvm.lifetime.start.p0(i64 32, ptr nonnull %2) #38
  call void @_ZNK6open3d4core5Dtype8ToStringB5cxx11Ev(ptr dead_on_unwind nonnull writable sret(%"class.std::__cxx11::basic_string") align 8 %2, ptr noundef nonnull align 8 dereferenceable(32) %0)
  invoke void @_ZN6open3d7utility6Logger9LogError_IJNSt7__cxx1112basic_stringIcSt11char_traitsIcESaIcEEEEEEvPKciSA_SA_DpOT_(ptr noundef nonnull @.str, i32 noundef 56, ptr noundef nonnull @__PRETTY_FUNCTION__._ZN6open3d1t8geometry8vtkutils14DtypeToVtkTypeERKNS_4core5DtypeE, ptr noundef nonnull @.str.8, ptr noundef nonnull align 8 dereferenceable(32) %2) #36
          to label %25 unwind label %26

25:                                               ; preds = %24
  unreachable

26:                                               ; preds = %24
  %27 = landingpad { ptr, i32 }
          cleanup
  %28 = load ptr, ptr %2, align 8, !tbaa !38
  %29 = getelementptr inbounds nuw i8, ptr %2, i64 16
  %30 = icmp eq ptr %28, %29
  br i1 %30, label %_ZNKSt7__cxx1112basic_stringIcSt11char_traitsIcESaIcEE11_M_is_localEv.exit.thread.i.i, label %_ZNKSt7__cxx1112basic_stringIcSt11char_traitsIcESaIcEE11_M_is_localEv.exit.i.i

_ZNKSt7__cxx1112basic_stringIcSt11char_traitsIcESaIcEE11_M_is_localEv.exit.thread.i.i: ; preds = %26
  %31 = getelementptr inbounds nuw i8, ptr %2, i64 8
  %32 = load i64, ptr %31, align 8, !tbaa !42
  %33 = icmp ult i64 %32, 16
  call void @llvm.assume(i1 %33)
  br label %_ZNSt7__cxx1112basic_stringIcSt11char_traitsIcESaIcEED2Ev.exit

_ZNKSt7__cxx1112basic_stringIcSt11char_traitsIcESaIcEE11_M_is_localEv.exit.i.i: ; preds = %26
  %34 = load i64, ptr %29, align 8, !tbaa !43
  %35 = add i64 %34, 1
  call void @_ZdlPvm(ptr noundef %28, i64 noundef %35) #35
  br label %_ZNSt7__cxx1112basic_stringIcSt11char_traitsIcESaIcEED2Ev.exit

_ZNSt7__cxx1112basic_stringIcSt11char_traitsIcESaIcEED2Ev.exit: ; preds = %_ZNKSt7__cxx1112basic_stringIcSt11char_traitsIcESaIcEE11_M_is_localEv.exit.thread.i.i, %_ZNKSt7__cxx1112basic_stringIcSt11char_traitsIcESaIcEE11_M_is_localEv.exit.i.i
  call void @llvm.lifetime.end.p0(i64 32, ptr nonnull %2) #38
  resume { ptr, i32 } %27

36:                                               ; preds = %22, %20, %18, %16, %14, %12, %10, %8, %6, %4, %1
  %.0 = phi i32 [ 10, %1 ], [ 11, %4 ], [ 15, %6 ], [ 4, %8 ], [ 6, %10 ], [ 16, %12 ], [ 3, %14 ], [ 5, %16 ], [ 7, %18 ], [ 17, %20 ], [ 1, %22 ]
  ret i32 %.0
}